target datalayout = "e-m:e-p270:32:32-p271:32:32-p272:64:64-i64:64-i128:128-f80:128-n8:16:32:64-S128"
target triple = "x86_64-pc-linux-gnu"

%struct._zval_struct = type { %union._zend_value, %union.anon, %union.anon.2 }
%union._zend_value = type { i64 }
%union.anon = type { i32 }
%union.anon.2 = type { i32 }
%struct._zend_refcounted_h = type { i32, %union.anon.3 }
%union.anon.3 = type { i32 }
%struct._php_random_status_state_xoshiro256starstar = type { [4 x i64] }
%struct._zend_string = type { %struct._zend_refcounted_h, i64, i64, [1 x i8] }

; Function Attrs: alwaysinline nounwind uwtable
define internal i32 @zval_gc_flags(i32 noundef %0) #7 {
  %2 = alloca i32, align 4
  store i32 %0, ptr %2, align 4, !tbaa !23
  %3 = load i32, ptr %2, align 4, !tbaa !23
  %4 = lshr i32 %3, 0
  %5 = and i32 %4, 1008
  ret i32 %5
}

; Function Attrs: nounwind uwtable
define internal zeroext i1 @serialize(ptr noundef %0, ptr noundef %1) #2 {
  %3 = alloca ptr, align 8
  %4 = alloca ptr, align 8
  %5 = alloca ptr, align 8
  %6 = alloca %struct._zval_struct, align 8
  %7 = alloca i32, align 4
  %8 = alloca ptr, align 8
  %9 = alloca ptr, align 8
  store ptr %0, ptr %3, align 8, !tbaa !13
  store ptr %1, ptr %4, align 8, !tbaa !21
  call void @llvm.lifetime.start.p0(i64 8, ptr %5) #9
  %10 = load ptr, ptr %3, align 8, !tbaa !13
  store ptr %10, ptr %5, align 8, !tbaa !4
  call void @llvm.lifetime.start.p0(i64 16, ptr %6) #9
  call void @llvm.lifetime.start.p0(i64 4, ptr %7) #9
  store i32 0, ptr %7, align 4, !tbaa !23
  br label %11

11:                                               ; preds = %40, %2
  %12 = load i32, ptr %7, align 4, !tbaa !23
  %13 = icmp ult i32 %12, 4
  br i1 %13, label %15, label %14

14:                                               ; preds = %11
  call void @llvm.lifetime.end.p0(i64 4, ptr %7) #9
  br label %43

15:                                               ; preds = %11
  br label %16

16:                                               ; preds = %15
  call void @llvm.lifetime.start.p0(i64 8, ptr %8) #9
  store ptr %6, ptr %8, align 8, !tbaa !25
  call void @llvm.lifetime.start.p0(i64 8, ptr %9) #9
  %17 = load ptr, ptr %5, align 8, !tbaa !4
  %18 = getelementptr inbounds nuw %struct._php_random_status_state_xoshiro256starstar, ptr %17, i32 0, i32 0
  %19 = load i32, ptr %7, align 4, !tbaa !23
  %20 = zext i32 %19 to i64
  %21 = getelementptr inbounds nuw [4 x i64], ptr %18, i64 0, i64 %20
  %22 = call ptr @php_random_bin2hex_le(ptr noundef %21, i64 noundef 8)
  store ptr %22, ptr %9, align 8, !tbaa !27
  %23 = load ptr, ptr %9, align 8, !tbaa !27
  %24 = load ptr, ptr %8, align 8, !tbaa !25
  %25 = getelementptr inbounds nuw %struct._zval_struct, ptr %24, i32 0, i32 0
  store ptr %23, ptr %25, align 8, !tbaa !29
  %26 = load ptr, ptr %9, align 8, !tbaa !27
  %27 = getelementptr inbounds nuw %struct._zend_string, ptr %26, i32 0, i32 0
  %28 = getelementptr inbounds nuw %struct._zend_refcounted_h, ptr %27, i32 0, i32 1
  %29 = load i32, ptr %28, align 4, !tbaa !29
  %30 = call i32 @zval_gc_flags(i32 noundef %29)
  %31 = and i32 %30, 64
  %32 = icmp ne i32 %31, 0
  %33 = select i1 %32, i32 6, i32 262
  %34 = load ptr, ptr %8, align 8, !tbaa !25
  %35 = getelementptr inbounds nuw %struct._zval_struct, ptr %34, i32 0, i32 1
  store i32 %33, ptr %35, align 8, !tbaa !29
  call void @llvm.lifetime.end.p0(i64 8, ptr %9) #9
  call void @llvm.lifetime.end.p0(i64 8, ptr %8) #9
  br label %36

36:                                               ; preds = %16
  br label %37

37:                                               ; preds = %36
  %38 = load ptr, ptr %4, align 8, !tbaa !21
  %39 = call ptr @zend_hash_next_index_insert(ptr noundef %38, ptr noundef %6)
  br label %40

40:                                               ; preds = %37
  %41 = load i32, ptr %7, align 4, !tbaa !23
  %42 = add i32 %41, 1
  store i32 %42, ptr %7, align 4, !tbaa !23
  br label %11

43:                                               ; preds = %14
  call void @llvm.lifetime.end.p0(i64 16, ptr %6) #9
  call void @llvm.lifetime.end.p0(i64 8, ptr %5) #9
  ret i1 true
}