; Function Attrs: nounwind uwtable
define internal noundef zeroext i1 @serialize(ptr noundef %0, ptr noundef %1) #3 {
  %3 = alloca %struct._zval_struct, align 8
  call void @llvm.lifetime.start.p0(i64 16, ptr nonnull %3) #8
  %4 = getelementptr inbounds nuw i8, ptr %3, i64 8
  br label %6

5:                                                ; preds = %6
  call void @llvm.lifetime.end.p0(i64 16, ptr nonnull %3) #8
  ret i1 true

6:                                                ; preds = %2, %6
  %indvars.iv = phi i64 [ 0, %2 ], [ %indvars.iv.next, %6 ]
  %7 = getelementptr inbounds nuw [4 x i64], ptr %0, i64 0, i64 %indvars.iv
  %8 = call ptr @php_random_bin2hex_le(ptr noundef %7, i64 noundef 8) #8
  store ptr %8, ptr %3, align 8, !tbaa !8
  %9 = getelementptr inbounds nuw i8, ptr %8, i64 4
  %10 = load i32, ptr %9, align 4, !tbaa !8
  %11 = and i32 %10, 64
  %.not = icmp eq i32 %11, 0
  %12 = select i1 %.not, i32 262, i32 6
  store i32 %12, ptr %4, align 8, !tbaa !8
  %13 = call ptr @zend_hash_next_index_insert(ptr noundef %1, ptr noundef nonnull %3) #8
  %indvars.iv.next = add nuw nsw i64 %indvars.iv, 1
  %exitcond.not = icmp eq i64 %indvars.iv.next, 4
  br i1 %exitcond.not, label %5, label %6
}